target datalayout = "e-m:e-p270:32:32-p271:32:32-p272:64:64-i64:64-i128:128-f80:128-n8:16:32:64-S128"
target triple = "x86_64-pc-linux-gnu"

%"class.std::__cxx11::basic_string" = type { %"struct.std::__cxx11::basic_string<char>::_Alloc_hider", i64, %union.anon }
%"struct.std::__cxx11::basic_string<char>::_Alloc_hider" = type { ptr }
%union.anon = type { i64, [8 x i8] }
%"struct.faiss::SimulatedAnnealingParameters.base" = type <{ double, double, i32, i32, i32, i32, i8, i8 }>
%"struct.faiss::PolysemousTraining" = type { %"struct.faiss::SimulatedAnnealingParameters.base", i32, i32, double, i64, %"class.std::__cxx11::basic_string" }

; Function Attrs: mustprogress uwtable
define void @_ZNK5faiss18PolysemousTraining23optimize_pq_for_hammingERNS_16ProductQuantizerEmPKf(ptr noundef nonnull align 8 dereferenceable(96) %0, ptr noundef nonnull align 8 dereferenceable(216) %1, i64 noundef %2, ptr noundef %3) #0 align 2 {
  %5 = alloca ptr, align 8
  %6 = alloca ptr, align 8
  %7 = alloca i64, align 8
  %8 = alloca ptr, align 8
  store ptr %0, ptr %5, align 8, !tbaa !133
  store ptr %1, ptr %6, align 8, !tbaa !141
  store i64 %2, ptr %7, align 8, !tbaa !41
  store ptr %3, ptr %8, align 8, !tbaa !157
  %9 = load ptr, ptr %5, align 8
  %10 = getelementptr inbounds nuw %"struct.faiss::PolysemousTraining", ptr %9, i32 0, i32 1
  %11 = load i32, ptr %10, align 4, !tbaa !135
  %12 = icmp eq i32 %11, 0
  br i1 %12, label %13, label %14

13:                                               ; preds = %4
  br label %25

14:                                               ; preds = %4
  %15 = getelementptr inbounds nuw %"struct.faiss::PolysemousTraining", ptr %9, i32 0, i32 1
  %16 = load i32, ptr %15, align 4, !tbaa !135
  %17 = icmp eq i32 %16, 1
  br i1 %17, label %18, label %20

18:                                               ; preds = %14
  %19 = load ptr, ptr %6, align 8, !tbaa !141
  call void @_ZNK5faiss18PolysemousTraining28optimize_reproduce_distancesERNS_16ProductQuantizerE(ptr noundef nonnull align 8 dereferenceable(96) %9, ptr noundef nonnull align 8 dereferenceable(216) %19)
  br label %24

20:                                               ; preds = %14
  %21 = load ptr, ptr %6, align 8, !tbaa !141
  %22 = load i64, ptr %7, align 8, !tbaa !41
  %23 = load ptr, ptr %8, align 8, !tbaa !157
  call void @_ZNK5faiss18PolysemousTraining16optimize_rankingERNS_16ProductQuantizerEmPKf(ptr noundef nonnull align 8 dereferenceable(96) %9, ptr noundef nonnull align 8 dereferenceable(216) %21, i64 noundef %22, ptr noundef %23)
  br label %24

24:                                               ; preds = %20, %18
  br label %25

25:                                               ; preds = %24, %13
  %26 = load ptr, ptr %6, align 8, !tbaa !141
  call void @_ZN5faiss16ProductQuantizer17compute_sdc_tableEv(ptr noundef nonnull align 8 dereferenceable(216) %26)
  ret void
}