; Function Attrs: mustprogress uwtable
define void @_ZNK5faiss18PolysemousTraining23optimize_pq_for_hammingERNS_16ProductQuantizerEmPKf(ptr noundef nonnull align 8 dereferenceable(96) %0, ptr noundef nonnull align 8 dereferenceable(216) %1, i64 noundef %2, ptr noundef %3) local_unnamed_addr #0 align 2 {
  %5 = getelementptr inbounds nuw i8, ptr %0, i64 36
  %6 = load i32, ptr %5, align 4, !tbaa !71
  switch i32 %6, label %8 [
    i32 0, label %9
    i32 1, label %7
  ]

7:                                                ; preds = %4
  tail call void @_ZNK5faiss18PolysemousTraining28optimize_reproduce_distancesERNS_16ProductQuantizerE(ptr noundef nonnull align 8 dereferenceable(96) %0, ptr noundef nonnull align 8 dereferenceable(216) %1)
  br label %9

8:                                                ; preds = %4
  tail call void @_ZNK5faiss18PolysemousTraining16optimize_rankingERNS_16ProductQuantizerEmPKf(ptr noundef nonnull align 8 dereferenceable(96) %0, ptr noundef nonnull align 8 dereferenceable(216) %1, i64 noundef %2, ptr noundef %3)
  br label %9

9:                                                ; preds = %4, %7, %8
  tail call void @_ZN5faiss16ProductQuantizer17compute_sdc_tableEv(ptr noundef nonnull align 8 dereferenceable(216) %1)
  ret void
}